ccopy_reg
_reconstructor
p1
(clibms.DataStructures.Table
Table
p2
c__builtin__
object
p3
NtRp4
(dp5
S'colFormats'
p6
(lp7
S'%.6f'
p8
aS'"%.2fm" % (o/60.0)'
p9
ag9
aS'%s'
p10
ag10
ag10
ag10
ag10
ag8
ag8
aS'%s'
p11
asS'colTypes'
p12
(lp13
c__builtin__
float
p14
ag14
ag14
ac__builtin__
str
p15
ag15
ag15
ag15
ag15
ag14
ag14
ag15
asS'colIndizes'
p16
(dp17
S'mf'
p18
I6
sS'name'
p19
I4
sS'url'
p20
I3
sS'KEGG_ID'
p21
I7
sS'mode'
p22
I10
sS'HMDB_ID'
p23
I5
sS'rtmin'
p24
I1
sS'm0'
p25
I0
sS'c_shift'
p26
I8
sS'rtmax'
p27
I2
sS'mz'
p28
I9
ssS'rows'
p29
(lp30
(lp31
F118.0266084
aF744
aF983.99999999999989
aS'http://pubchem.ncbi.nlm.nih.gov/summary/summary.cgi?cid=1110&loc=ec_rcs'
p32
aS'"Succinic acid"'
p33
aS'HMDB00254'
p34
aS'C4H6O4'
p35
aS'C00042'
p36
aF0
aF117.017943484
aS'[M-H]-'
p37
aa(lp38
F134.021523
aF750
aF990
aS'http://pubchem.ncbi.nlm.nih.gov/summary/summary.cgi?cid=525&loc=ec_rcs'
p39
aS'"Malic acid"'
p40
aS'HMDB00744'
p41
aS'C4H6O5'
p42
aS'C00149'
p43
aF0
aF133.01285808400002
ag37
aa(lp44
F146.021523
aF768
aF1008
aS'http://pubchem.ncbi.nlm.nih.gov/summary/summary.cgi?cid=51&loc=ec_rcs'
p45
aS'"Oxoglutaric acid"'
p46
aS'HMDB00208'
p47
aS'C5H6O5'
p48
aS'C00026'
p49
aF0
aF145.01285808400002
ag37
aa(lp50
F167.98237409999999
aF840
aF1080
aS'http://pubchem.ncbi.nlm.nih.gov/summary/summary.cgi?cid=1005&loc=ec_rcs'
p51
aS'"Phosphoenolpyruvic acid"'
p52
aS'HMDB00263'
p53
aS'C3H5O6P'
p54
aS'C00074'
p55
aF0
aF166.973709184
ag37
aa(lp56
F192.0270022
aF840
aF1080
aS'http://pubchem.ncbi.nlm.nih.gov/summary/summary.cgi?cid=311&loc=ec_rcs'
p57
aS'"Citric acid"'
p58
aS'HMDB00094'
p59
aS'C6H8O7'
p60
aS'C00158'
p61
aF0
aF191.01833728400001
ag37
aa(lp62
F230.0191533
aF714
aF960
aS'http://pubchem.ncbi.nlm.nih.gov/summary/summary.cgi?cid=77982&loc=ec_rcs'
p63
aS'"D-Ribose 5-phosphate"'
p64
aS'HMDB01548'
p65
aS'C5H11O8P'
p66
aS'C00117'
p67
aF0
aF229.01048838400001
ag37
aa(lp68
F260.02971789999998
aF714
aF960
aS'http://pubchem.ncbi.nlm.nih.gov/summary/summary.cgi?cid=208&loc=ec_rcs'
p69
aS'"Glucose 6-phosphate"'
p70
aS'HMDB01401'
p71
aS'C6H13O9P'
p72
aS'C00668'
p73
aF0
aF259.02105298399999
ag37
aa(lp74
F276.0246325
aF840
aF1080
aS'http://pubchem.ncbi.nlm.nih.gov/summary/summary.cgi?cid=91493&loc=ec_rcs'
p75
aS'"6-Phosphogluconic acid"'
p76
aS'HMDB01316'
p77
aS'C6H13O10P'
p78
aS'C00345'
p79
aF0
aF275.01596758400001
ag37
aa(lp80
F339.99604820000002
aF816
aF1056
aS'http://pubchem.ncbi.nlm.nih.gov/summary/summary.cgi?cid=718&loc=ec_rcs'
p81
aS'"Fructose 1,6-bisphosphate"'
p82
aS'HMDB01058'
p83
aS'C6H14O11P2'
p84
aS'C00354; C05378'
p85
aF0
aF338.98738328400003
ag37
aa(lp86
F347.06308369999999
aF768
aF1008
aS'http://pubchem.ncbi.nlm.nih.gov/summary/summary.cgi?cid=6083&loc=ec_rcs'
p87
aS'"Adenosine monophosphate"'
p88
aS'HMDB00045'
p89
aS'C10H14N5O7P'
p90
aS'C00020'
p91
aF0
aF346.05441878400001
ag37
aa(lp92
F427.02941399999997
aF840
aF960
aS'http://pubchem.ncbi.nlm.nih.gov/summary/summary.cgi?cid=159296&loc=ec_rcs'
p93
aS'"Adenosine 3,5-diphosphate"'
p94
aS'HMDB00061'
p95
aS'C10H15N5O10P2'
p96
aS'C00054'
p97
aF0
aF426.02074908399999
ag37
aa(lp98
F506.99574430000001
aF888
aF1128
aS'http://pubchem.ncbi.nlm.nih.gov/summary/summary.cgi?cid=5957&loc=ec_rcs'
p99
aS'"Adenosine triphosphate"'
p100
aS'HMDB00538'
p101
aS'C10H16N5O13P3'
p102
aS'C00002'
p103
aF0
aF505.98707938400003
ag37
aa(lp104
F522.99065889999997
aF882
aF1122
aS'http://pubchem.ncbi.nlm.nih.gov/summary/summary.cgi?cid=6830&loc=ec_rcs'
p105
aS'"Guanosine triphosphate"'
p106
aS'HMDB01273'
p107
aS'C10H16N5O14P3'
p108
aS'C00044'
p109
aF0
aF521.98199398399993
ag37
aa(lp110
F612.15196060000005
aF708
aF900
aS'http://pubchem.ncbi.nlm.nih.gov/summary/summary.cgi?cid=975&loc=ec_rcs'
p111
aS'"Oxidized glutathione"'
p112
aS'HMDB03337'
p113
aS'C20H32N6O12S2'
p114
aS'C00127'
p115
aF0
aF611.14329568400001
ag37
aa(lp116
F665.12477039999999
aF570
aF810
aS'http://pubchem.ncbi.nlm.nih.gov/summary/summary.cgi?cid=928&loc=ec_rcs'
p117
aS'"NADH"'
p118
aS'HMDB01487'
p119
aS'C21H29N7O14P2'
p120
aS'C00004'
p121
aF0
aF664.11610548399995
ag37
aa(lp122
F745.09110069999997
aF600
aF1020
aS'http://pubchem.ncbi.nlm.nih.gov/summary/summary.cgi?cid=5884&loc=ec_rcs'
p123
aS'"NADPH"'
p124
aS'HMDB00221'
p125
aS'C21H30N7O17P3'
p126
aS'C00005'
p127
aF0
aF744.08243578399993
ag37
aa(lp128
F787.17278299999998
aF870
aF1110
aS'http://pubchem.ncbi.nlm.nih.gov/summary/summary.cgi?cid=446013&loc=ec_rcs'
p129
aS'"FADH"'
p130
aS'HMDB01197'
p131
aS'C27H35N9O15P2'
p132
aS'C01352'
p133
aF0
aF786.16411808399994
ag37
aa(lp134
F809.12577139999996
aF912
aF1152
aS'http://pubchem.ncbi.nlm.nih.gov/summary/summary.cgi?cid=6302&loc=ec_rcs'
p135
aS'"Acetyl-CoA"'
p136
aS'HMDB01206'
p137
aS'C23H38N7O17P3S'
p138
aS'C00024'
p139
aF0
aF808.11710648399992
ag37
aa(lp140
F867.13125060000004
aF720
aF960
aS'http://pubchem.ncbi.nlm.nih.gov/summary/summary.cgi?cid=439161&loc=ec_rcs'
p141
aS'"Succinyl-CoA"'
p142
aS'HMDB01022'
p143
aS'C25H40N7O19P3S'
p144
aS'C00091'
p145
aF0
aF866.122585684
ag37
aa(lp146
F118.0266084
aF744
aF983.99999999999989
ag32
ag33
ag34
ag35
ag36
aF0
aF58.004639284
aS'[M-2H]--'
p147
aa(lp148
F134.021523
aF750
aF990
ag39
ag40
ag41
ag42
ag43
aF0
aF66.002096584
ag147
aa(lp149
F146.021523
aF768
aF1008
ag45
ag46
ag47
ag48
ag49
aF0
aF72.002096584
ag147
aa(lp150
F167.98237409999999
aF840
aF1080
ag51
ag52
ag53
ag54
ag55
aF0
aF82.982522133999993
ag147
aa(lp151
F192.0270022
aF840
aF1080
ag57
ag58
ag59
ag60
ag61
aF0
aF95.004836183999998
ag147
aa(lp152
F230.0191533
aF714
aF960
ag63
ag64
ag65
ag66
ag67
aF0
aF114.000911734
ag147
aa(lp153
F260.02971789999998
aF714
aF960
ag69
ag70
ag71
ag72
ag73
aF0
aF129.006194034
ag147
aa(lp154
F276.0246325
aF840
aF1080
ag75
ag76
ag77
ag78
ag79
aF0
aF137.00365133400001
ag147
aa(lp155
F339.99604820000002
aF816
aF1056
ag81
ag82
ag83
ag84
ag85
aF0
aF168.98935918400002
ag147
aa(lp156
F347.06308369999999
aF768
aF1008
ag87
ag88
ag89
ag90
ag91
aF0
aF172.52287693400001
ag147
aa(lp157
F427.02941399999997
aF840
aF960
ag93
ag94
ag95
ag96
ag97
aF0
aF212.506042084
ag147
aa(lp158
F506.99574430000001
aF888
aF1128
ag99
ag100
ag101
ag102
ag103
aF0
aF252.48920723400002
ag147
aa(lp159
F522.99065889999997
aF882
aF1122
ag105
ag106
ag107
ag108
ag109
aF0
aF260.486664534
ag147
aa(lp160
F612.15196060000005
aF708
aF900
ag111
ag112
ag113
ag114
ag115
aF0
aF305.06731538400004
ag147
aa(lp161
F665.12477039999999
aF570
aF810
ag117
ag118
ag119
ag120
ag121
aF0
aF331.55372028400001
ag147
aa(lp162
F745.09110069999997
aF600
aF1020
ag123
ag124
ag125
ag126
ag127
aF0
aF371.536885434
ag147
aa(lp163
F787.17278299999998
aF870
aF1110
ag129
ag130
ag131
ag132
ag133
aF0
aF392.577726584
ag147
aa(lp164
F809.12577139999996
aF912
aF1152
ag135
ag136
ag137
ag138
ag139
aF0
aF403.55422078399999
ag147
aa(lp165
F867.13125060000004
aF720
aF960
ag141
ag142
ag143
ag144
ag145
aF0
aF432.55696038400004
ag147
aasS'title'
p166
S'universal_metabolites.csv'
p167
sS'primaryIndex'
p168
(dp169
sS'_name'
p170
S'<libms.DataStructures.Table.Table object at 0x07D8CE50>'
p171
sS'meta'
p172
(dp173
S'loaded_from'
p174
S'c:\\Dokumente und Einstellungen\\Administrator\\Eigene Dateien\\msWorkbench\\tables\\universal_metabolites.table'
p175
ssS'editableColumns'
p176
c__builtin__
set
p177
((ltRp178
sS'colNames'
p179
(lp180
g25
ag24
ag27
ag20
ag19
ag23
ag18
ag21
ag26
ag28
ag22
asb.