ccopy_reg
_reconstructor
p1
(clibms.DataStructures.Table
Table
p2
c__builtin__
object
p3
NtRp4
(dp5
S'colIndizes'
p6
(dp7
S'mf'
p8
I6
sS'name'
p9
I4
sS'url'
p10
I3
sS'KEGGID'
p11
I7
sS'HMDBID'
p12
I5
sS'rtmin'
p13
I1
sS'm0'
p14
I0
sS'rtmax'
p15
I2
ssS'meta'
p16
(dp17
S'loaded_from'
p18
S'c:\\Dokumente und Einstellungen\\Administrator\\Eigene Dateien\\msWorkbench\\tables\\universal_metabolites.csv'
p19
ssS'colFormats'
p20
(lp21
S'%.2f'
p22
aS'"%.2fm" % (o/60.0)'
p23
ag23
aS'%s'
p24
ag24
ag24
ag24
ag24
asS'colTypes'
p25
(lp26
c__builtin__
float
p27
ag27
ag27
ac__builtin__
str
p28
ag28
ag28
ag28
ag28
asS'editableColumns'
p29
c__builtin__
set
p30
((ltRp31
sS'rows'
p32
(lp33
(lp34
F118.0266084
aF744
aF983.99999999999989
aS'http://pubchem.ncbi.nlm.nih.gov/summary/summary.cgi?cid=1110&loc=ec_rcs'
p35
aS'"Succinic acid"'
p36
aS'HMDB00254'
p37
aS'C4H6O4'
p38
aS'C00042'
p39
aa(lp40
F134.021523
aF750
aF990
aS'http://pubchem.ncbi.nlm.nih.gov/summary/summary.cgi?cid=525&loc=ec_rcs'
p41
aS'"Malic acid"'
p42
aS'HMDB00744'
p43
aS'C4H6O5'
p44
aS'C00149'
p45
aa(lp46
F146.021523
aF768
aF1008
aS'http://pubchem.ncbi.nlm.nih.gov/summary/summary.cgi?cid=51&loc=ec_rcs'
p47
aS'"Oxoglutaric acid"'
p48
aS'HMDB00208'
p49
aS'C5H6O5'
p50
aS'C00026'
p51
aa(lp52
F167.98237409999999
aF840
aF1080
aS'http://pubchem.ncbi.nlm.nih.gov/summary/summary.cgi?cid=1005&loc=ec_rcs'
p53
aS'"Phosphoenolpyruvic acid"'
p54
aS'HMDB00263'
p55
aS'C3H5O6P'
p56
aS'C00074'
p57
aa(lp58
F192.0270022
aF840
aF1080
aS'http://pubchem.ncbi.nlm.nih.gov/summary/summary.cgi?cid=311&loc=ec_rcs'
p59
aS'"Citric acid"'
p60
aS'HMDB00094'
p61
aS'C6H8O7'
p62
aS'C00158'
p63
aa(lp64
F230.0191533
aF714
aF960
aS'http://pubchem.ncbi.nlm.nih.gov/summary/summary.cgi?cid=77982&loc=ec_rcs'
p65
aS'"D-Ribose 5-phosphate"'
p66
aS'HMDB01548'
p67
aS'C5H11O8P'
p68
aS'C00117'
p69
aa(lp70
F260.02971789999998
aF714
aF960
aS'http://pubchem.ncbi.nlm.nih.gov/summary/summary.cgi?cid=208&loc=ec_rcs'
p71
aS'"Glucose 6-phosphate"'
p72
aS'HMDB01401'
p73
aS'C6H13O9P'
p74
aS'C00668'
p75
aa(lp76
F276.0246325
aF840
aF1080
aS'http://pubchem.ncbi.nlm.nih.gov/summary/summary.cgi?cid=91493&loc=ec_rcs'
p77
aS'"6-Phosphogluconic acid"'
p78
aS'HMDB01316'
p79
aS'C6H13O10P'
p80
aS'C00345'
p81
aa(lp82
F339.99604820000002
aF816
aF1056
aS'http://pubchem.ncbi.nlm.nih.gov/summary/summary.cgi?cid=718&loc=ec_rcs'
p83
aS'"Fructose 1,6-bisphosphate"'
p84
aS'HMDB01058'
p85
aS'C6H14O11P2'
p86
aS'C00354; C05378'
p87
aa(lp88
F347.06308369999999
aF768
aF1008
aS'http://pubchem.ncbi.nlm.nih.gov/summary/summary.cgi?cid=6083&loc=ec_rcs'
p89
aS'"Adenosine monophosphate"'
p90
aS'HMDB00045'
p91
aS'C10H14N5O7P'
p92
aS'C00020'
p93
aa(lp94
F427.02941399999997
aF840
aF960
aS'http://pubchem.ncbi.nlm.nih.gov/summary/summary.cgi?cid=159296&loc=ec_rcs'
p95
aS'"Adenosine 3,5-diphosphate"'
p96
aS'HMDB00061'
p97
aS'C10H15N5O10P2'
p98
aS'C00054'
p99
aa(lp100
F506.99574430000001
aF888
aF1128
aS'http://pubchem.ncbi.nlm.nih.gov/summary/summary.cgi?cid=5957&loc=ec_rcs'
p101
aS'"Adenosine triphosphate"'
p102
aS'HMDB00538'
p103
aS'C10H16N5O13P3'
p104
aS'C00002'
p105
aa(lp106
F522.99065889999997
aF882
aF1122
aS'http://pubchem.ncbi.nlm.nih.gov/summary/summary.cgi?cid=6830&loc=ec_rcs'
p107
aS'"Guanosine triphosphate"'
p108
aS'HMDB01273'
p109
aS'C10H16N5O14P3'
p110
aS'C00044'
p111
aa(lp112
F612.15196060000005
aF708
aF900
aS'http://pubchem.ncbi.nlm.nih.gov/summary/summary.cgi?cid=975&loc=ec_rcs'
p113
aS'"Oxidized glutathione"'
p114
aS'HMDB03337'
p115
aS'C20H32N6O12S2'
p116
aS'C00127'
p117
aa(lp118
F665.12477039999999
aF570
aF810
aS'http://pubchem.ncbi.nlm.nih.gov/summary/summary.cgi?cid=928&loc=ec_rcs'
p119
aS'"NADH"'
p120
aS'HMDB01487'
p121
aS'C21H29N7O14P2'
p122
aS'C00004'
p123
aa(lp124
F745.09110069999997
aF600
aF1020
aS'http://pubchem.ncbi.nlm.nih.gov/summary/summary.cgi?cid=5884&loc=ec_rcs'
p125
aS'"NADPH"'
p126
aS'HMDB00221'
p127
aS'C21H30N7O17P3'
p128
aS'C00005'
p129
aa(lp130
F787.17278299999998
aF870
aF1110
aS'http://pubchem.ncbi.nlm.nih.gov/summary/summary.cgi?cid=446013&loc=ec_rcs'
p131
aS'"FADH"'
p132
aS'HMDB01197'
p133
aS'C27H35N9O15P2'
p134
aS'C01352'
p135
aa(lp136
F809.12577139999996
aF912
aF1152
aS'http://pubchem.ncbi.nlm.nih.gov/summary/summary.cgi?cid=6302&loc=ec_rcs'
p137
aS'"Acetyl-CoA"'
p138
aS'HMDB01206'
p139
aS'C23H38N7O17P3S'
p140
aS'C00024'
p141
aa(lp142
F867.13125060000004
aF720
aF960
aS'http://pubchem.ncbi.nlm.nih.gov/summary/summary.cgi?cid=439161&loc=ec_rcs'
p143
aS'"Succinyl-CoA"'
p144
aS'HMDB01022'
p145
aS'C25H40N7O19P3S'
p146
aS'C00091'
p147
aasS'title'
p148
S'universal_metabolites.csv'
p149
sS'primaryIndex'
p150
(dp151
sS'_name'
p152
S'<libms.DataStructures.Table.Table object at 0x0818F470>'
p153
sS'colNames'
p154
(lp155
g14
ag13
ag15
ag10
ag9
ag12
ag8
ag11
asb.