ccopy_reg
_reconstructor
p1
(clibms.DataStructures.Table
Table
p2
c__builtin__
object
p3
NtRp4
(dp5
S'colFormats'
p6
(lp7
S'%.2f'
p8
aS'"%.2fm" % (o/60.0)'
p9
ag9
aS'%s'
p10
ag10
ag10
ag10
ag10
asS'colTypes'
p11
(lp12
c__builtin__
float
p13
ag13
ag13
ac__builtin__
str
p14
ag14
ag14
ag14
ag14
asS'rows'
p15
(lp16
(lp17
F118.0266084
aF744
aF983.99999999999989
aS'http://pubchem.ncbi.nlm.nih.gov/summary/summary.cgi?cid=1110&loc=ec_rcs'
p18
aS'"Succinic acid"'
p19
aS'HMDB00254'
p20
aS'C4H6O4'
p21
aS'C00042'
p22
aa(lp23
F134.021523
aF750
aF990
aS'http://pubchem.ncbi.nlm.nih.gov/summary/summary.cgi?cid=525&loc=ec_rcs'
p24
aS'"Malic acid"'
p25
aS'HMDB00744'
p26
aS'C4H6O5'
p27
aS'C00149'
p28
aa(lp29
F146.021523
aF768
aF1008
aS'http://pubchem.ncbi.nlm.nih.gov/summary/summary.cgi?cid=51&loc=ec_rcs'
p30
aS'"Oxoglutaric acid"'
p31
aS'HMDB00208'
p32
aS'C5H6O5'
p33
aS'C00026'
p34
aa(lp35
F167.98237409999999
aF840
aF1080
aS'http://pubchem.ncbi.nlm.nih.gov/summary/summary.cgi?cid=1005&loc=ec_rcs'
p36
aS'"Phosphoenolpyruvic acid"'
p37
aS'HMDB00263'
p38
aS'C3H5O6P'
p39
aS'C00074'
p40
aa(lp41
F192.0270022
aF840
aF1080
aS'http://pubchem.ncbi.nlm.nih.gov/summary/summary.cgi?cid=311&loc=ec_rcs'
p42
aS'"Citric acid"'
p43
aS'HMDB00094'
p44
aS'C6H8O7'
p45
aS'C00158'
p46
aa(lp47
F230.0191533
aF714
aF960
aS'http://pubchem.ncbi.nlm.nih.gov/summary/summary.cgi?cid=77982&loc=ec_rcs'
p48
aS'"D-Ribose 5-phosphate"'
p49
aS'HMDB01548'
p50
aS'C5H11O8P'
p51
aS'C00117'
p52
aa(lp53
F260.02971789999998
aF714
aF960
aS'http://pubchem.ncbi.nlm.nih.gov/summary/summary.cgi?cid=208&loc=ec_rcs'
p54
aS'"Glucose 6-phosphate"'
p55
aS'HMDB01401'
p56
aS'C6H13O9P'
p57
aS'C00668'
p58
aa(lp59
F276.0246325
aF840
aF1080
aS'http://pubchem.ncbi.nlm.nih.gov/summary/summary.cgi?cid=91493&loc=ec_rcs'
p60
aS'"6-Phosphogluconic acid"'
p61
aS'HMDB01316'
p62
aS'C6H13O10P'
p63
aS'C00345'
p64
aa(lp65
F339.99604820000002
aF816
aF1056
aS'http://pubchem.ncbi.nlm.nih.gov/summary/summary.cgi?cid=718&loc=ec_rcs'
p66
aS'"Fructose 1,6-bisphosphate"'
p67
aS'HMDB01058'
p68
aS'C6H14O11P2'
p69
aS'C00354; C05378'
p70
aa(lp71
F347.06308369999999
aF768
aF1008
aS'http://pubchem.ncbi.nlm.nih.gov/summary/summary.cgi?cid=6083&loc=ec_rcs'
p72
aS'"Adenosine monophosphate"'
p73
aS'HMDB00045'
p74
aS'C10H14N5O7P'
p75
aS'C00020'
p76
aa(lp77
F427.02941399999997
aF840
aF960
aS'http://pubchem.ncbi.nlm.nih.gov/summary/summary.cgi?cid=159296&loc=ec_rcs'
p78
aS'"Adenosine 3,5-diphosphate"'
p79
aS'HMDB00061'
p80
aS'C10H15N5O10P2'
p81
aS'C00054'
p82
aa(lp83
F506.99574430000001
aF888
aF1128
aS'http://pubchem.ncbi.nlm.nih.gov/summary/summary.cgi?cid=5957&loc=ec_rcs'
p84
aS'"Adenosine triphosphate"'
p85
aS'HMDB00538'
p86
aS'C10H16N5O13P3'
p87
aS'C00002'
p88
aa(lp89
F522.99065889999997
aF882
aF1122
aS'http://pubchem.ncbi.nlm.nih.gov/summary/summary.cgi?cid=6830&loc=ec_rcs'
p90
aS'"Guanosine triphosphate"'
p91
aS'HMDB01273'
p92
aS'C10H16N5O14P3'
p93
aS'C00044'
p94
aa(lp95
F612.15196060000005
aF708
aF900
aS'http://pubchem.ncbi.nlm.nih.gov/summary/summary.cgi?cid=975&loc=ec_rcs'
p96
aS'"Oxidized glutathione"'
p97
aS'HMDB03337'
p98
aS'C20H32N6O12S2'
p99
aS'C00127'
p100
aa(lp101
F665.12477039999999
aF570
aF810
aS'http://pubchem.ncbi.nlm.nih.gov/summary/summary.cgi?cid=928&loc=ec_rcs'
p102
aS'"NADH"'
p103
aS'HMDB01487'
p104
aS'C21H29N7O14P2'
p105
aS'C00004'
p106
aa(lp107
F745.09110069999997
aF600
aF1020
aS'http://pubchem.ncbi.nlm.nih.gov/summary/summary.cgi?cid=5884&loc=ec_rcs'
p108
aS'"NADPH"'
p109
aS'HMDB00221'
p110
aS'C21H30N7O17P3'
p111
aS'C00005'
p112
aa(lp113
F787.17278299999998
aF870
aF1110
aS'http://pubchem.ncbi.nlm.nih.gov/summary/summary.cgi?cid=446013&loc=ec_rcs'
p114
aS'"FADH"'
p115
aS'HMDB01197'
p116
aS'C27H35N9O15P2'
p117
aS'C01352'
p118
aa(lp119
F809.12577139999996
aF912
aF1152
aS'http://pubchem.ncbi.nlm.nih.gov/summary/summary.cgi?cid=6302&loc=ec_rcs'
p120
aS'"Acetyl-CoA"'
p121
aS'HMDB01206'
p122
aS'C23H38N7O17P3S'
p123
aS'C00024'
p124
aa(lp125
F867.13125060000004
aF948
aF1188
aS'http://pubchem.ncbi.nlm.nih.gov/summary/summary.cgi?cid=439161&loc=ec_rcs'
p126
aS'"Succinyl-CoA"'
p127
aS'HMDB01022'
p128
aS'C25H40N7O19P3S'
p129
aS'C00091'
p130
aasS'title'
p131
S'universal_metabolites.csv'
p132
sS'primaryIndex'
p133
(dp134
sS'colIndizes'
p135
(dp136
S'mf'
p137
I6
sS'name'
p138
I4
sS'url'
p139
I3
sS'KEGG_ID'
p140
I7
sS'HMDB_ID'
p141
I5
sS'rtmin'
p142
I1
sS'm0'
p143
I0
sS'rtmax'
p144
I2
ssS'_name'
p145
S'<libms.DataStructures.Table.Table object at 0x05FF31D0>'
p146
sS'meta'
p147
(dp148
S'loaded_from'
p149
S'c:\\Dokumente und Einstellungen\\Administrator\\Eigene Dateien\\msWorkbench\\tables\\universal_metabolites.csv'
p150
ssS'editableColumns'
p151
c__builtin__
set
p152
((ltRp153
sS'colNames'
p154
(lp155
g143
ag142
ag144
ag139
ag138
ag141
ag137
ag140
asb.