ccopy_reg
_reconstructor
p1
(clibms.DataStructures.Table
Table
p2
c__builtin__
object
p3
NtRp4
(dp5
S'colFormats'
p6
(lp7
S'%.5f'
p8
aS'%s'
p9
aS'%s'
p10
ag9
aNaS'%s'
p11
asS'colTypes'
p12
(lp13
c__builtin__
float
p14
ac__builtin__
str
p15
ag15
ag15
ag15
ag15
asS'colIndizes'
p16
(dp17
S'mf'
p18
I2
sS'cid'
p19
I1
sS'url'
p20
I5
sS'iupac'
p21
I3
sS'synonyms'
p22
I4
sS'mw'
p23
I0
ssS'rows'
p24
(lp25
(lp26
F3000.3954800000001
aS'44208913'
p27
aS'C134H207N41O36S'
p28
aNaS'L000449'
p29
aS'http://pubchem.ncbi.nlm.nih.gov/summary/summary.cgi?cid=44208913'
p30
aa(lp31
F3039.4086000000002
aS'44208928'
p32
aS'C130H220N44O40'
p33
aNaS'L000555'
p34
aS'http://pubchem.ncbi.nlm.nih.gov/summary/summary.cgi?cid=44208928'
p35
aa(lp36
F3043.39552
aS'16132374'
p37
aS'C120H188N38O43S6'
p38
aNaS'omega Cgtx;omega-Cgtx;omega-Cgtx gvia;omega-Conotoxin gvia;Conus geographus toxin;omega Conus geographus toxin;92078-76-7;omega-Ctx;omega CgTX GVIA;GVIA, omega-CgTX;omega-Conopeptide gvia;GVIA, omega-Conotoxin;geographus Toxin, Conus;Toxin, Conus geographus;omega-Conus geographus toxin;Snx 124;Conus geographus Toxin GVIA;geographus toxin, omega-Conus;toxin, omega-Conus geographus;omega-Conotoxin G VIA (reduced);LS-187069;LS-187677;D020866'
p39
aS'http://pubchem.ncbi.nlm.nih.gov/summary/summary.cgi?cid=16132374'
p40
aa(lp41
F3108.2755000000002
aS'16130571'
p42
aS'C129H215N33O55'
p43
aNaS'Zadaxin;Thymalfasin;alpha1-Thymosin;Thymosin alpha1;Thymosin-alpha-1;Thymosin alpha(1);Thymosin alpha1 (ox);Thymosin alpha1 (human);Thymosin alpha1 (cattle);62304-98-7;69521-94-4;L-Asparagine, N-acetyl-L-seryl-L-alpha-aspartyl-L-alanyl-L-alanyl-L-valyl-L-alpha-asparatyl-L-threonyl-L-seryl-L-seryl-L-alpha-glutamyl-L-isoleucyl-L-threonyl-L-threonyl-L-lysyl-L-alpha-aspartyl-L-leucyl-L-lysyl-L-alpha-glutamyl-L-lysyl-L-lysyl-L-alpha-glutamyl-L-valyl-L-valyl-L-alpha-glutamyl-L-alpha-glutamyl-L-alanyl-L-alpha-glutamyl-;Thymlfasin;Thymosin .alpha.1;Thymalfasin [USAN:INN];.alpha.1-ThymosinThymalfasin;SciClone brand of thymalfasin;EMZ702;MolPort-006-167-825;Thymosin-alpha-1 & .alpha. IFN;HS-2030;Ac-SDAAVDTSSEITTKDLKEKKEVVEEAEN-COOH;LS-153808;C026455;Ac-SDAAVDTSSEITTKDLKEKKEVVEEAEN-COOH; Thymosin .alpha.1 (cattle);69440-99-9;N-Acetyl-L-seryl-L-alpha-aspartyl-L-alanyl-L-alanyl-L-valyl-L-alpha-aspartyl-L-threonyl-L-seryl-L-seryl-L-alpha-glutamyl-L-isoleucyl-L-threonyl-L-threonyl-L-lysyl-L-alpha-aspartyl-L-leucyl-L-lysyl-L-alpha-glutamyl-L-lysyl-L-lysyl-L-alpha-glutamyl-L-valyl-L-valyl-L-alpha-glutamyl-L-alpha-glutamyl-L-alanyl-L-alpha-glutamyl-L-asparagine'
p44
aS'http://pubchem.ncbi.nlm.nih.gov/summary/summary.cgi?cid=16130571'
p45
aa(lp46
F3142.5296800000001
aS'16165016'
p47
aS'C144H217N43O37'
p48
aNaS'L000443'
p49
aS'http://pubchem.ncbi.nlm.nih.gov/summary/summary.cgi?cid=16165016'
p50
aa(lp51
F3171.6107999999999
aS'44208859'
p52
aS'C138H220N42O40S2'
p53
aNaS'L000036'
p54
aS'http://pubchem.ncbi.nlm.nih.gov/summary/summary.cgi?cid=44208859'
p55
aa(lp56
F3210.5175199999999
aS'16129686'
p57
aS'C146H213N43O40'
p58
aNaS'Porcine galanin;Galanin (swine);Galanin (pig);Galanin (porcine);Galanin(1-29) porcine;Porcine galanin(1-29);CCRIS 6750;88813-36-9;L-Alaninamide, glycyl-L-tryptophyl-L-threonyl-L-leucyl-L-asparaginyl-L-seryl-L-alanylglycyl-L-tyrosyl-L-leucyl-L-leucylglycyl-L-prolyl-L-histidyl-L-alanyl-L-isoleucyl-L-alpha-aspartyl-L-asparaginyl-L-histidyl-L-arginyl-L-seryl-L-phenylalanyl-L-histidyl-L-alpha-aspartyl-L-lysyl-L-tyrosylglycyl-L-leucyl-;Galanin (1-29);Galanin (1-30);LS-71038;D019004;121806-90-4'
p59
aS'http://pubchem.ncbi.nlm.nih.gov/summary/summary.cgi?cid=16129686'
p60
aa(lp61
F3297.6297399999999
aS'44208889'
p62
aS'C149H226N40O45'
p63
aNaS'L000272'
p64
aS'http://pubchem.ncbi.nlm.nih.gov/summary/summary.cgi?cid=44208889'
p65
aa(lp66
F3342.2038600000001
aS'44134999'
p67
aS'C148H239ClN44O42'
p68
aNaS'Cpl-vip;Vip, 4-Cl-phe(6)-leu(17)-;(4-Cl-D-Phe(6),leu(17))vip;6-(4-Chlorophenylalanyl)-17-leucine-vip;102805-45-8;6-(4-Chloro-phe)-17-leu-vasoactive intestinal peptide;Vasoactive intestinal peptide, 4-chloro-phe(6)-leu(17)-;Vasoactive intestinal peptide, 4-chlorophenylalanyl(6)-leucine(17)-;[D-p-Cl-Phe6,Leu17]-VASOACTIVE INTESTINAL PEPTIDE;C048507;Vasoactive intestinal octacosapeptide (pig), 6-(4-chloro-D-phenylalanine)-17-L-leucine-;His-Ser-Asp-Ala-Val-pCl-Phe-Thr-Asp-Asn-Tyr-Thr-Arg-Leu-Arg-Lys-Gln-Leu-Ala-Val-Lys-Lys-Tyr-Leu- Asn-Ser-Ile-Leu-Asn-NH2;His-Ser-Asp-Ala-Val-pCl-Phe-Thr-Asp-Asn-Tyr-Thr-Arg-Leu-Arg-Lys-Gln-Leu-Ala-Val-Lys-Lys-Tyr-Leu- Asn-Ser-Ile-Leu-Asn-NH2 S'
p69
aS'http://pubchem.ncbi.nlm.nih.gov/summary/summary.cgi?cid=44134999'
p70
aa(lp71
F3357.8821400000002
aS'16129620'
p72
aS'C149H246N44O42S'
p73
aNaS'SERMORELIN;Geref (TN);86168-78-7;Sermorelina;Sermoreline;Sermorelinum;Sermorelin (INN);Sermoreline [French];Sermorelinum [Latin];Sermorelina [Spanish];Sermorelin [INN:BAN];UNII-89243S03TE;114466-38-5 (acetate);C08192;D08509;L000266;GROWTH HORMONE RELEASING FACTOR, Fragment 1-29 Amide;Somatoliberin (human pancreatic islet), 29-L-argininamide-30-de-L-glutamine-31-de-L-glutamine-32-deglycine-33-de-L-glutamic acid-34-de-L-serine-35-de-L-asparagine-36-de-L-glutamine-37-de-L-glutamic acid-38-de-L-arginine-39-deglycine-40-de-L-alanine-41-de-L-arginine-42-de-L-alanine-43-de-L-argininyl-44-de-L-leucinamide;Tyr-Ala-Asp-Ala-Ile-Phe-Thr-Asn- Ser-Tyr-Arg-Lys-Val-Leu-Gly-Gln- Leu-Ser-Ala-Arg-Lys-Leu-Leu-Gln- Asp-Ile-Met-Ser-Arg-NH2'
p74
aS'http://pubchem.ncbi.nlm.nih.gov/summary/summary.cgi?cid=16129620'
p75
aa(lp76
F3360.8611799999999
aS'44208921'
p77
aS'C153H247N43O42'
p78
aNaS'L000512'
p79
aS'http://pubchem.ncbi.nlm.nih.gov/summary/summary.cgi?cid=44208921'
p80
aa(lp81
F3370.8610600000002
aS'44216438'
p82
aS'C149H249N47O42'
p83
aNaS'L024099'
p84
aS'http://pubchem.ncbi.nlm.nih.gov/summary/summary.cgi?cid=44216438'
p85
aa(lp86
F3370.8610600000002
aS'16133832'
p87
aS'C149H249N47O42'
p88
aNaS'Ghrelin;Gastric MLTRP;Motilin-related peptide;Obestatin;Ppghrelin;Human ghrelin;Ghrelin (human);Ghrelin Precursor;GHRL Protein;Precursor, Ghrelin;PpMTLRP;Motilin Related Peptide;Appetite Regulating Hormone;Appetite-Regulating Hormone;Ghrelin Obestatin Preprohormone;Ghrelin-Obestatin Preprohormone;Motilin Related Peptide Precursor;Motilin-Related Peptide Precursor;Peptide Precursor, Motilin-Related;Precursor, Motilin-Related Peptide;D054439;304853-26-7'
p89
aS'http://pubchem.ncbi.nlm.nih.gov/summary/summary.cgi?cid=16133832'
p90
aa(lp91
F3431.8530999999998
aS'16129616'
p92
aS'C145H240N44O48S2'
p93
aNaS'Salmon calcitonin;Calcihexal;Calcimar;Cibacalcin;Fortical;Miacalcin;Bionocalcin;Calcimonta;Calcitonina;Calcitoran;Cibacalcine;Eptacalcin;Miracalcic;Osseocalcina;Ostostabil;Porostenina;Prontocalcin;Rulicalcin;Salmocalcin;Tonocalcin;Astronin;Biocalcin;Calciben;Calcinil;Calcioton;Calogen;Calsynar;Caltine;Catonin;Citonina;Ipocalcin;Kalsimin;Oseototal;Osteobion;Osteovis;Ostosalm;Quosten;Riostin;Salcatyn;Salmofar;Stalcin;Staporos;Steocin;Cadens;Casalm;Salcat;Ucecal;Calco;Karil;Sical;Isi-calcin;Calcitonin salmon;Calcitonin,salmon;Calcitonin-salmon;Calsynar Lyo L;Calcitonin, salmar;Salmon calcitonin I;Calcitonin (salmon);Calcitonin vom lachs;Calcitonine de saumon;TZ-CT;Salmon calcitonin-(I-32);Calcitonin, salmon, for bioassay;EINECS 256-342-8;47931-85-1;Miacalcic;CALCITONIN, SALMON;synthetic salmon calcitonin;salmon calcitonin (1-32);Miacalcin (TN);Calcimar (TN);Fortical (TN);Thyrocalcitonin (salmon);Calcitonin (salmon) (JP16);Calcitonin salmon (USAN/INN);Calcitonin [USAN:INN:BAN:JAN];C145H239N43O48S2;LS-48624;C06865;D00249;9007-12-9'
p94
aS'http://pubchem.ncbi.nlm.nih.gov/summary/summary.cgi?cid=16129616'
p95
aa(lp96
F3435.94938
aS'16133753'
p97
aS'C151H252N44O45S'
p98
aNaS'Geref (TN);Sermorelin acetate (USAN);Sermorelin acetate hydrate;114466-38-5;D02117'
p99
aS'http://pubchem.ncbi.nlm.nih.gov/summary/summary.cgi?cid=16133753'
p100
aa(lp101
F3437.9634999999998
aS'44216409'
p102
aS'C155H250N42O44S'
p103
aNaS'L024008'
p104
aS'http://pubchem.ncbi.nlm.nih.gov/summary/summary.cgi?cid=44216409'
p105
aa(lp106
F3482.7473
aS'16162931'
p107
aS'C153H225N43O49S'
p108
aNaS'L023981;His-Ser-Gln-Gly-Thr-Phe- Thr-Ser-Asp-Tyr-Ser-Lys-Tyr-Leu- Asp-Ser-Arg-Arg-Ala-Gln-Asp-Phe- Val-Gln-Trp-Leu-Met-Asn-Thr'
p109
aS'http://pubchem.ncbi.nlm.nih.gov/summary/summary.cgi?cid=16162931'
p110
aa(lp111
F3510.0607399999999
aS'44209150'
p112
aS'C157H246N48O40S2'
p113
aNaS'L002383'
p114
aS'http://pubchem.ncbi.nlm.nih.gov/summary/summary.cgi?cid=44209150'
p115
aa(lp116
F3562.0411199999999
aS'44208922'
p117
aS'C160H258N46O46'
p118
aNaS'L000513'
p119
aS'http://pubchem.ncbi.nlm.nih.gov/summary/summary.cgi?cid=44208922'
p120
aa(lp121
F3563.1616600000002
aS'44216432'
p122
aS'C161H269N49O42'
p123
aNaS'L024077'
p124
aS'http://pubchem.ncbi.nlm.nih.gov/summary/summary.cgi?cid=44216432'
p125
aa(lp126
F3563.1616600000002
aS'16133798'
p127
aS'C161H269N49O42'
p128
aNaS'Astressin;C104416;Cyclo(30-33)(phe(12),nle(21,38),glu(30),lys(33))r-hcrf(12-41);170809-51-5'
p129
aS'http://pubchem.ncbi.nlm.nih.gov/summary/summary.cgi?cid=16133798'
p130
aa(lp131
F3716.1248000000001
aS'44209019'
p132
aS'C164H260N50O49'
p133
aNaS'L001824'
p134
aS'http://pubchem.ncbi.nlm.nih.gov/summary/summary.cgi?cid=44209019'
p135
aa(lp136
F3751.2020000000002
aS'44147092'
p137
aS'C172H265N43O51'
p138
aNaS'Liraglutide;NN2211;NN 2211;NN-2211;victoza;Liraglutida;Liraglutidum;Liraglutide [USAN:INN];Liraglutidum [INN-Latin];Liraglutida [INN-Spanish];UNII-839I73S42A;C439759;N26-(Hexadecanoyl-gamma-glutamyle)-(34-arginine)GLP-1-(7-37)-peptide;N26-(Hexadecanoyl-gamma-glutamyle)-(34-arginine)glucagon-like-peptide-1-(7-37)-peptide;204656-20-2;Glycine, L-histidyl-L-alanyl-L-alpha-glutamylglycyl-L-threonyl-L-phenylalanyl-L-threonyl-L-seryl-L-alpha-aspartyl-L-valyl-L-seryl-L-seryl-L-tyrosyl-L-leucyl-L-alpha-glutamylglycyl-L-glutaminyl-L-alanyl-L-alanyl-N6-(N-(1-oxohexadecyl)-L-gamma-glutamyl)-L-lysyl-L-alpha-glutamyl-L-phenylalanyl-L-isoleucyl-L-alanyl-L-tryptophyl-L-leucyl-L-valyl-L-arginylglycyl-L-arginyl-'
p139
aS'http://pubchem.ncbi.nlm.nih.gov/summary/summary.cgi?cid=44147092'
p140
aa(lp141
F3842.3957799999998
aS'16130996'
p142
aS'C165H282N44O56S2'
p143
aNaS'alpha-Helical crf(9-41);Crf(9-41);Chr (9-41);Crh (9-41);alpha-Corticotropin releasing factor;Corticotropin releasing factor (9-41);Corticotropin releasing hormone (9-41);96118-75-1;L-Alaninamide, L-alpha-aspartyl-L-leucyl-L-threonyl-L-leucyl-L-alpha-glutamyl-L-leucyl-L-leucyl-L-arginyl-L-alpha-glutamyl-L-methionyl-L-leucyl-L-alpha-glutamyl-L-methionyl-L-alpha-glutamyl-L-lysyl-L-alanyl-L-glutaminyl-L-alanyl-L-alanyl-L-leucyl-L-asparaginyl-L-arginyl-L-leucyl-L-leucyl-L-leucyl-L-alpha-glutamyl-L-alpha-glutamyl-;LS-182769;C045089'
p144
aS'http://pubchem.ncbi.nlm.nih.gov/summary/summary.cgi?cid=16130996'
p145
aa(lp146
F3843.4315999999999
aS'44216430'
p147
aS'C176H285N47O49'
p148
aNaS'L024074'
p149
aS'http://pubchem.ncbi.nlm.nih.gov/summary/summary.cgi?cid=44216430'
p150
aa(lp151
F3903.2765399999998
aS'16158170'
p152
aS'C165H261N51O55S2'
p153
aNaS'Amlintide (USAN/INN);122384-88-7;D02913'
p154
aS'http://pubchem.ncbi.nlm.nih.gov/summary/summary.cgi?cid=16158170'
p155
aa(lp156
F3931.4190400000002
aS'16129670'
p157
aS'C166H261N51O52S4'
p158
aNaS'CHOLECYSTOKININ;CCRIS 3307;9011-97-6;Pancreozymin;Uropancreozymin;Cholecystokinin 33;CCK-33;LS-182690;D002766;71710-32-2;8066-00-0;9001-71-2;9012-22-0'
p159
aS'http://pubchem.ncbi.nlm.nih.gov/summary/summary.cgi?cid=16129670'
p160
aa(lp161
F3980.4365600000001
aS'16132262'
p162
aS'C182H264N44O53S2'
p163
aNaS'GASTRIN;Gastrins;D005755;9002-76-0'
p164
aS'http://pubchem.ncbi.nlm.nih.gov/summary/summary.cgi?cid=16132262'
p165
aa(lp166
F4049.46396
aS'44208920'
p167
aS'C180H279N53O54'
p168
aNaS'L000497'
p169
aS'http://pubchem.ncbi.nlm.nih.gov/summary/summary.cgi?cid=44208920'
p170
aa(lp171
F4117.7151400000002
aS'16129682'
p172
aS'C181H291N55O51S2'
p173
aNaS'Forteo;Parathyroid hormone (1-34);Teriparatidum [Latin];Teriparatida [Spanish];1-34-Human PTH;Parathyroid hormone peptide (1-34);Human PTH (1-34);(1-34)-Human parathormone;1-34-Parathormone (human);(1-34)-Human parathyroid hormone;Human parathyroid hormone (1-34);HPTH- (1-34);TERIPARATIDE;52232-67-4;Teriparatida;Teriparatidum;Teriparatide [USAN];UNII-10T9CSU89I;PTH (1-34) (human);HSDB 7367;99294-94-7 (acetate);LS-183974;LS-187065;LS-187794;LY 333334;267417-73-2;289470-84-4;L-Phenylalanine, L-seryl-L-valyl-L-seryl-L-alpha-glutamyl-L-isoleucyl-L-glutaminyl-L-leucyl-L-methionyl-L-histidyl-L-asparaginyl-L-leucylglycyl-L-lysyl-L-histidyl-L-leucyl-L-asparaginyl-L-seryl-L-methionyl-L-alpha-glutamyl-L-arginyl-L-valyl-L-alpha-glutamyl-L-tryptophyl-L-leucyl-L-arginyl-L-lysyl-L-lysyl-L-leucyl-L-glutaminyl-L-alpha-aspartyl-L-valyl-L-histidyl-L-asparaginyl-;L-Seryl-L-valyl-L-seryl-L-alpha-glutamyl-L-isoleucyl-L-glutaminyl-L-leucyl-L-methionyl-L-histidyl-L-asparaginyl-L-leucylglycyl-L-lysyl-L-histidyl-L-leucyl-L-asparaginyl-L-seryl-L-methionyl-L-alpha-glutamyl-L-arginyl-L-valyl-L-alpha-glutamyl-L-tryptophyl-L-leucyl-L-arginyl-L-lysyl-L-lysyl-L-leucyl-L-glutaminyl-L-alpha-aspartyl-L-valyl-L-histidyl-L-asparaginyl-L-phenylalanine'
p174
aS'http://pubchem.ncbi.nlm.nih.gov/summary/summary.cgi?cid=16129682'
p175
aa(lp176
F4118.6238000000003
aS'44208890'
p177
aS'C184H290N48O57S'
p178
aNaS'L000273'
p179
aS'http://pubchem.ncbi.nlm.nih.gov/summary/summary.cgi?cid=44208890'
p180
aa(lp181
F4178.8410199999998
aS'44216434'
p182
aS'C185H298N68O42S'
p183
aNaS'L024083'
p184
aS'http://pubchem.ncbi.nlm.nih.gov/summary/summary.cgi?cid=44216434'
p185
aa(lp186
F4186.5718800000004
aS'16157882'
p187
aS'C184H282N50O60S'
p188
aNaS'Exenatide;Byetta;Exenatide Synthetic;AC 2993;CHEMBL414357;Exendin 4 (Heloderma suspectum);CHEBI:490990;MolPort-009-194-177;AC 2993A;LY2148568;Exendin 3 (Heloderma horridum), 2-glycine-3-L-glutamic acid-;141758-74-9;286014-72-0;335149-21-8;L-Serinamide, L-histidylglycyl-L-alpha-glutamylglycyl-L-threonyl-L-phenylalanyl-L-threonyl-L-seryl-L-alpha-aspartyl-L-leucyl-L-seryl-L-lysyl-L-glutaminyl-L-methionyl-L-alpha-glutamyl-L-alpha-glutamyl-L-alpha-glutamyl-L-alanyl-L-valyl-L-arginyl-L-leucyl-L-phenylalanyl-L-isoleucyl-L-alpha-glutamyl-L-tryptophyl-L-leucyl-L-lysyl-L-asparaginylglycylglycyl-L-prolyl-L-seryl-L-serylglycyl-L-alanyl-L-prolyl-L-prolyl-L-prolyl-'
p189
aS'http://pubchem.ncbi.nlm.nih.gov/summary/summary.cgi?cid=16157882'
p190
aa(lp191
F4230.8478599999999
aS'16132435'
p192
aS'C179H274N50O55S7'
p193
aNaS'Iberiotoxin;Iberiatoxin;IbTX;129203-60-7;I2141_SIGMA;I5904_SIGMA;LS-183325;C064719'
p194
aS'http://pubchem.ncbi.nlm.nih.gov/summary/summary.cgi?cid=16132435'
p195
aa(lp196
F4323.9811600000003
aS'44134622'
p197
aS'C176H289N57O56S7'
p198
aNaS'CHARYBDOTOXIN;ChTX;115422-61-2;95751-30-7;CTX Toxin;Toxin, CTX;Quinquestriatus Toxin;Toxin, Quinquestriatus;Charybdotoxin (reduced);D018999'
p199
aS'http://pubchem.ncbi.nlm.nih.gov/summary/summary.cgi?cid=44134622'
p200
aa(lp201
F4328.1617999999999
aS'22833968'
p202
aS'C188H305N55O50S6'
p203
aNaS'L000299'
p204
aS'http://pubchem.ncbi.nlm.nih.gov/summary/summary.cgi?cid=22833968'
p205
aa(lp206
F4535.2403000000004
aS'44208915'
p207
aS'C203H330N62O54S'
p208
aNaS'L000461'
p209
aS'http://pubchem.ncbi.nlm.nih.gov/summary/summary.cgi?cid=44208915'
p210
aa(lp211
F4541.0658199999998
aS'16132265'
p212
aS'C207H308N56O58S'
p213
aNaS'corticotropin;Adrenocorticotropin;ACTH;Corticotrophine;Corticotrofina;Cortrophin;Corticotrophinum;Adrenocorticotropic hormone;CHEBI:3892;NCGC00167127-01;LS-187380;SYSMEHFRWGKPVGKKRRPVKVYPDGAEDQLAEAFPLEF;L-seryl-L-tyrosyl-L-seryl-L-methionyl-L-alpha-glutamyl-L-histidyl-L-phenylalanyl-L-arginyl-L-tryptophylglycyl-L-lysyl-L-prolyl-L-valylglycyl-L-lysyl-L-lysyl-L-arginyl-L-arginyl-L-prolyl-L-valyl-L-lysyl-L-valyl-L-tyrosyl-L-prolyl-L-alpha-aspartylglycyl-L-alanyl-L-alpha-glutamyl-L-alpha-aspartyl-L-alpha-glutamyl-L-seryl-L-alanyl-L-alpha-glutamyl-L-alanyl-L-phenylalanyl-L-prolyl-L-leucyl-L-alpha-glutamyl-L-phenylalanine'
p214
aS'http://pubchem.ncbi.nlm.nih.gov/summary/summary.cgi?cid=16132265'
p215
aa(lp216
F4564.9267600000003
aS'24847866'
p217
aS'C206H304N52O66'
p218
aNaS'Enfuvirtide;Pentafuside;Fuzeon;Enfuvirtide [USAN];T 20 (peptide);Dp 178;DP178;HSDB 7341;T 20;T-20;L-Phenylalaninamide, N-acetyl-L-tyrosyl-L-threonyl-L-seryl-L-leucyl-L-isoleucyl-L-histidyl-L-seryl-L-leucyl-L-isoleucyl-L-alpha-glutamyl-L-alpha-glutamyl-L-seryl-L-glutaminyl-L-asparaginyl-L-glutaminyl-L-glutaminyl-L-alpha-glutamyl-L-lysyl-L-asparaginyl-L-alpha-glutamyl-L-glutaminyl-L-alpha-glutamyl-L-leucyl-L-leucyl-L-alpha-glutamyl-L-leucyl-L-alpha-aspartyl-L-lysyl-L-tryptophyl-L-alanyl-L-seryl-L-leucyl-L-tryptophyl-L-asparaginyl-L-tryptophyl-;peptide T20;T20 peptide;T-20 cpd;Roche brand of pentafuside;UNII-19OWO1T3ZE;LS-183961;C105196;262434-79-7;L-Phenylalaninamide, N-acetyl-L-tyrosyl-L-threonyl-L-seryl-L-leucyl-L-isoleucyl-L-histadyl-L-seryl-L-leucyl-L-isoleucyl-L-alpha-glutamyl-L-alpha-glutamyl-L-seryl-L-glutaminyl-L-asparaginyl-L-glutaminyl-L-glutaminyl-L-alpha-glutamyl-L-lysyl-L-asparaginyl-L-alpha-glutamyl-L-glutaminyl-L-alpha-glutamyl-L-leucyl-L-leucyl-L-alpha-glutamyl-L-leucyl-L-alpha-aspartyl-L-lysyl-L-tryptophyl-L-alanyl-L-seryl-L-leucyl-L-tryptophyl-L-asparaginyl-L-tryptophyl-;N-Acetyl-L-tyrosyl-L-threonyl-L-seryl-L-leucyl-L-isoleucyl-L-histadyl-L-seryl-L-leucyl-L-isoleucyl-L-alpha-glutamyl-L-alpha-glutamyl-L-seryl-L-glutaminyl-L-asparaginyl-L-glutaminyl-L-glutaminyl-L-alpha-glutamyl-L-lysyl-L-asparaginyl-L-alpha-glutamyl-L-glutaminyl-L-alpha-glutamyl-L-leucyl-L-leucyl-L-alpha-glutamyl-L-leucyl-L-alpha-aspartyl-L-lysyl-L-tryptophyl-L-alanyl-L-seryl-L-leucyl-L-tryptophyl-L-asparaginyl-L-tryptophyl-L-phenylalaninamide'
p219
aS'http://pubchem.ncbi.nlm.nih.gov/summary/summary.cgi?cid=24847866'
p220
aa(lp221
F4599.3110399999996
aS'44144601'
p222
aS'C202H346N56O63S'
p223
aNaS'Sauvagin;Sauvagine;C-Terminal sauvagine(17-40);74434-59-6;0-Tyr-sauvagine;sauvagine(17-40);sauvagine, Tyr(0)-;sauvagine, tyrosyl(0)-;Sauvagine (17-40);aSvg-30, Nle(17)-;11-D-Phe-12-His-17-Nle-Svg(11-40);K41498;C025727;K 41498;K-41498;(D-Phe(11),His(12),Nle(17))Svg(11-40);sauvagine (11-40), D-Phe(11)-His(12)-Nle(17)-;sauvagine (11-40), D-phenylalanyl(11)-histidyl(12)-norleucyl(17)-;88831-26-9;Sauvagin, 1-de(5-oxo-L-proline)-2-deglycine-3-de-L-proline-4-de-L-proline-5-de-L-isoleucine-6-de-L-serine-7-de-L-isoleucine-8-de-L-aspartic acid-9-de-L-leucine-10-de-L-serine-11-de-L-leucine-12-de-L-glutamic acid-13-de-L-leucine-14-de-L-leucine-15-de-L-arginine-16-de-L-lysine-'
p224
aS'http://pubchem.ncbi.nlm.nih.gov/summary/summary.cgi?cid=44144601'
p225
aa(lp226
F5807.5702199999996
aS'16129672'
p227
aS'C257H383N65O77S6'
p228
aNaS"Insulin;Ultraphane;Humuline;Velosiline HM;Humulin N;Humulin R;Humulin S;Novolin R;Penfil R;Insulin (human);HUMAN INSULIN;Humulin N-U 100;Insulin, human synthetic;Insulin (Macaca mulatta);Insulin human (synthesis);Insulin (Pan troglodytes);Insulina humana [Spanish];Insuline humaine [French];Insulinum humanum [Latin];Insulin (Macaca fascicularis);Insulin (Cercopithecus aethiops);EINECS 234-279-7;Insulin (ox), 8A-L-threonine-10A-L-isoleucine-30B-L-threonine-;L-Threonine, L-phenylalanyl-L-valyl-L-asparaginyl-L-glutaminyl-L-histidyl-L-leucyl-L-cysteinylglycyl-L-seryl-L-histidyl-L-leucyl-L-valyl-L-alpha-glutamyl-L-alanyl-L-leucyl-L-tyrosyl-L-leucyl-L-valyl-L-cysteinylglycyl-L-alpha-glutamyl-L-arginylglycyl-L-phenylalanyl-L-phenylalanyl-L-tyrosyl-L-threonyl-L-prolyl-L-lysyl-, cyclic (7-7'),(19-20')-bis(disulfide) with glycyl-L-isoleucyl-L-valyl-L-alpha-glutamyl-L-glutaminyl-L-cysteinyl-L-cysteinyl-L-threonyl-L-seryl-L-isoleucyl-L-cysteinyl-L-seryl-L-leucyl-L-tyrosyl-L-glutaminyl-L-leucyl-L-alpha-glutamyl-L-asparaginyl-L_tyrosyl-L-cysteinyl-L-asparagine cyclic (6'-11')-disulfide;Humulin;Insugen;Insulina humana;Insulin human;Insuline humaine;Insulinum humanum;Insulin U-500;Humulin 70/30;UNII-1Y17CTI5SR;Insulin human [USAN:BAN:INN];LS-84081;11061-68-0;A protein that has the normal structure of the natural antidiabetic principle produced by the human pancreas;A protein that has the normal structure of the natural antidiabetic principle produced by the human pancreas. Insulin (human)"
p229
aS'http://pubchem.ncbi.nlm.nih.gov/summary/summary.cgi?cid=16129672'
p230
aa(lp231
F5831.5900799999999
aS'16132418'
p232
aS'C256H387N65O79S6'
p233
aNaS'NovoRapid;Insulin aspart;NovoLog;B28-Asp-insulin;Novolog mix 70/30;Insulin aspart [USAN];(AspB28)-human insulin;AspB28-insulin (human);INA-X 14;Insulin (human), 28B-L-aspartic acid-;Insulin (ox), 8A-L-threonine-10A-L-isoleucine-28B-L-aspartic acid-30B-L-threonine-;Insulin X14;NovoRapid 30 Mix;NovoMix 30;UNII-D933668QVX;LS-185932;28(sup B)-L-Aspartic acid-insulin (human);1024611-56-0;116094-23-6;139532-40-4'
p234
aS'http://pubchem.ncbi.nlm.nih.gov/summary/summary.cgi?cid=16132418'
p235
aa(lp236
F6337.61384
aS'23724994'
p237
aS'C240H376N6O183S2'
p238
aNaS'Piroxicam betadex (USAN);96684-40-1;D05511'
p239
aS'http://pubchem.ncbi.nlm.nih.gov/summary/summary.cgi?cid=23724994'
p240
aa(lp241
F6963.4245000000001
aS'16129703'
p242
aS'C287H440N80O110S6'
p243
aNaS'Desirudin;Iprivask;desulfatohirudin;Revasc;desulphatohirudin;recombinant HV1 hirudin;IK-HIR02;CGP 39393;CGP-39393;120993-53-5;Desirudin [USAN:INN];Aventis brand of desirudin;Novartis brand of desirudin;UNII-U0JZ726775;Aventis Pharma brand of desirudin;C287H440N80O110S6;LS-172472;C060225;63-Desulfohirudin (Hirudo medicinalis isoform HV1);Hirudin (Hirudo medicinalis isoform HV1), 63-desulfo-'
p244
aS'http://pubchem.ncbi.nlm.nih.gov/summary/summary.cgi?cid=16129703'
p245
aa(lp246
F6985.4715399999995
aS'16132441'
p247
aS'C287H446N80O111S6'
p248
aNaS'Lepirudin;Refludan;Hbw 023;Hbw-023;1-Leu-2-thr-63-desulfohirudin;Hirudin (Hirudo medicinalis isoform HV1), 1-L-leucine-2-L-threonine-63-desulfo-;Refludin;Lepirudin recombinant;Aventis Brand Lepirudin;Berlex Brand of Lepirudin;Hoechst Brand of Lepirudin;Pharmion Brand of Lepirudin;Schering Brand of Lepirudin;UNII-Y43GF64R34;Aventis Pharma Brand of Lepirudin;Aventis Behring Brand of Lepirudin;LS-186968;LS-187612;C083544;1-L-Leucine-2-L-threonine-63-desulfohirudin (Hirudo medicinalis isoform HV1);138068-37-8'
p249
aS'http://pubchem.ncbi.nlm.nih.gov/summary/summary.cgi?cid=16132441'
p250
aasS'name'
p251
S'<libms.DataStructures.Table.Table object at 0x0804BAD0>'
p252
sS'title'
p253
S'PubChem'
p254
sS'primaryIndex'
p255
(dp256
sS'sources'
p257
(tsS'meta'
p258
(dp259
sS'colNames'
p260
(lp261
g23
ag19
ag18
ag21
ag22
ag20
asb.